; Function Attrs: mustprogress uwtable
define dso_local noundef zeroext i1 @_ZN11FactPointTo12is_valid_ptrEPKcRKSt6vectorIPK4FactSaIS5_EE(ptr noundef %0, ptr noundef nonnull readonly align 8 captures(none) dereferenceable(24) %1) local_unnamed_addr #6 align 2 {
  %3 = getelementptr inbounds nuw i8, ptr %1, i64 8
  %4 = load ptr, ptr %3, align 8, !tbaa !129
  %5 = load ptr, ptr %1, align 8, !tbaa !105
  %.not16 = icmp eq ptr %4, %5
  br i1 %.not16, label %_ZNK11FactPointTo7is_nullEv.exit, label %.lr.ph

.lr.ph:                                           ; preds = %2, %40
  %6 = phi ptr [ %.pre, %40 ], [ %5, %2 ]
  %.01215 = phi i64 [ %41, %40 ], [ 0, %2 ]
  %7 = getelementptr inbounds nuw ptr, ptr %6, i64 %.01215
  %8 = load ptr, ptr %7, align 8, !tbaa !44
  %9 = load ptr, ptr %8, align 8, !tbaa !35
  %10 = getelementptr inbounds nuw i8, ptr %9, i64 120
  %11 = load ptr, ptr %10, align 8
  %12 = tail call noundef ptr %11(ptr noundef nonnull align 8 dereferenceable(12) %8)
  %13 = getelementptr inbounds nuw i8, ptr %12, i64 32
  %14 = tail call noundef i32 @_ZNKSt7__cxx1112basic_stringIcSt11char_traitsIcESaIcEE7compareEPKc(ptr noundef nonnull align 8 dereferenceable(32) %13, ptr noundef %0) #22
  %15 = icmp eq i32 %14, 0
  %.pre = load ptr, ptr %1, align 8, !tbaa !105
  br i1 %15, label %16, label %40

16:                                               ; preds = %.lr.ph
  %17 = getelementptr inbounds nuw ptr, ptr %.pre, i64 %.01215
  %18 = load ptr, ptr %17, align 8, !tbaa !44
  %19 = getelementptr inbounds nuw i8, ptr %18, i64 8
  %20 = load i32, ptr %19, align 8, !tbaa !143
  %21 = icmp eq i32 %20, 1
  br i1 %21, label %22, label %40

22:                                               ; preds = %16
  %23 = getelementptr inbounds nuw i8, ptr %18, i64 24
  %24 = getelementptr inbounds nuw i8, ptr %18, i64 32
  %25 = load ptr, ptr %24, align 8, !tbaa !18
  %26 = load ptr, ptr %23, align 8, !tbaa !4
  %.not.i = icmp eq ptr %25, %26
  br i1 %.not.i, label %.loopexit, label %.lr.ph.i

.lr.ph.i:                                         ; preds = %22
  %27 = ptrtoint ptr %25 to i64
  %28 = ptrtoint ptr %26 to i64
  %29 = sub i64 %27, %28
  %30 = ashr exact i64 %29, 3
  %31 = load ptr, ptr @_ZN11FactPointTo8null_ptrE, align 8, !tbaa !19
  %umax.i = tail call i64 @llvm.umax.i64(i64 %30, i64 1)
  br label %34

32:                                               ; preds = %34
  %33 = add nuw i64 %.05.i, 1
  %exitcond.not.i = icmp eq i64 %33, %umax.i
  br i1 %exitcond.not.i, label %.loopexit, label %34, !llvm.loop !21

34:                                               ; preds = %32, %.lr.ph.i
  %.05.i = phi i64 [ 0, %.lr.ph.i ], [ %33, %32 ]
  %35 = getelementptr inbounds nuw ptr, ptr %26, i64 %.05.i
  %36 = load ptr, ptr %35, align 8, !tbaa !19
  %37 = icmp eq ptr %36, %31
  br i1 %37, label %_ZNK11FactPointTo7is_nullEv.exit, label %32

.loopexit:                                        ; preds = %32, %22
  %38 = load ptr, ptr @_ZN11FactPointTo11garbage_ptrE, align 8, !tbaa !19
  %39 = tail call noundef i32 @_Z20find_variable_in_setRKSt6vectorIPK8VariableSaIS2_EES2_(ptr noundef nonnull align 8 dereferenceable(24) %23, ptr noundef %38)
  %.not = icmp eq i32 %39, -1
  br label %_ZNK11FactPointTo7is_nullEv.exit

40:                                               ; preds = %.lr.ph, %16
  %41 = add nuw i64 %.01215, 1
  %42 = load ptr, ptr %3, align 8, !tbaa !129
  %43 = ptrtoint ptr %42 to i64
  %44 = ptrtoint ptr %.pre to i64
  %45 = sub i64 %43, %44
  %46 = ashr exact i64 %45, 3
  %47 = icmp ult i64 %41, %46
  br i1 %47, label %.lr.ph, label %_ZNK11FactPointTo7is_nullEv.exit, !llvm.loop !144

_ZNK11FactPointTo7is_nullEv.exit:                 ; preds = %40, %34, %2, %.loopexit
  %.0 = phi i1 [ %.not, %.loopexit ], [ true, %2 ], [ false, %34 ], [ true, %40 ]
  ret i1 %.0
}